target datalayout = "e-m:e-p270:32:32-p271:32:32-p272:64:64-i64:64-i128:128-f80:128-n8:16:32:64-S128"
target triple = "x86_64-pc-linux-gnu"

%struct.grpc_slice_buffer = type { ptr, ptr, i64, i64, i64, [6 x %struct.grpc_slice] }
%struct.grpc_slice = type { ptr, %"union.grpc_slice::grpc_slice_data" }
%"union.grpc_slice::grpc_slice_data" = type { %"struct.grpc_slice::grpc_slice_data::grpc_slice_refcounted", [8 x i8] }
%"struct.grpc_slice::grpc_slice_data::grpc_slice_refcounted" = type { i64, ptr }
%struct.alts_grpc_record_protocol = type { ptr, ptr, %struct.grpc_slice_buffer, ptr, i64, i64, ptr, i64 }
%struct.alts_grpc_record_protocol_vtable = type { ptr, ptr, ptr }

; Function Attrs: mustprogress uwtable
define void @_Z33alts_grpc_record_protocol_destroyP25alts_grpc_record_protocol(ptr noundef %0) #4 {
  %2 = alloca ptr, align 8
  store ptr %0, ptr %2, align 8, !tbaa !3
  %3 = load ptr, ptr %2, align 8, !tbaa !3
  %4 = icmp eq ptr %3, null
  br i1 %4, label %5, label %6

5:                                                ; preds = %1
  br label %33

6:                                                ; preds = %1
  %7 = load ptr, ptr %2, align 8, !tbaa !3
  %8 = getelementptr inbounds nuw %struct.alts_grpc_record_protocol, ptr %7, i32 0, i32 0
  %9 = load ptr, ptr %8, align 8, !tbaa !68
  %10 = getelementptr inbounds nuw %struct.alts_grpc_record_protocol_vtable, ptr %9, i32 0, i32 2
  %11 = load ptr, ptr %10, align 8, !tbaa !72
  %12 = icmp ne ptr %11, null
  br i1 %12, label %13, label %20

13:                                               ; preds = %6
  %14 = load ptr, ptr %2, align 8, !tbaa !3
  %15 = getelementptr inbounds nuw %struct.alts_grpc_record_protocol, ptr %14, i32 0, i32 0
  %16 = load ptr, ptr %15, align 8, !tbaa !68
  %17 = getelementptr inbounds nuw %struct.alts_grpc_record_protocol_vtable, ptr %16, i32 0, i32 2
  %18 = load ptr, ptr %17, align 8, !tbaa !72
  %19 = load ptr, ptr %2, align 8, !tbaa !3
  call void %18(ptr noundef %19)
  br label %20

20:                                               ; preds = %13, %6
  %21 = load ptr, ptr %2, align 8, !tbaa !3
  %22 = getelementptr inbounds nuw %struct.alts_grpc_record_protocol, ptr %21, i32 0, i32 1
  %23 = load ptr, ptr %22, align 8, !tbaa !66
  call void @_Z34alts_iovec_record_protocol_destroyP26alts_iovec_record_protocol(ptr noundef %23)
  %24 = load ptr, ptr %2, align 8, !tbaa !3
  %25 = getelementptr inbounds nuw %struct.alts_grpc_record_protocol, ptr %24, i32 0, i32 2
  call void @grpc_slice_buffer_destroy(ptr noundef %25)
  %26 = load ptr, ptr %2, align 8, !tbaa !3
  %27 = getelementptr inbounds nuw %struct.alts_grpc_record_protocol, ptr %26, i32 0, i32 3
  %28 = load ptr, ptr %27, align 8, !tbaa !57
  call void @gpr_free(ptr noundef %28)
  %29 = load ptr, ptr %2, align 8, !tbaa !3
  %30 = getelementptr inbounds nuw %struct.alts_grpc_record_protocol, ptr %29, i32 0, i32 6
  %31 = load ptr, ptr %30, align 8, !tbaa !24
  call void @gpr_free(ptr noundef %31)
  %32 = load ptr, ptr %2, align 8, !tbaa !3
  call void @gpr_free(ptr noundef %32)
  br label %33

33:                                               ; preds = %20, %5
  ret void
}