; Function Attrs: mustprogress uwtable
define void @_Z33alts_grpc_record_protocol_destroyP25alts_grpc_record_protocol(ptr noundef %0) local_unnamed_addr #3 {
  %2 = icmp eq ptr %0, null
  br i1 %2, label %16, label %3

3:                                                ; preds = %1
  %4 = load ptr, ptr %0, align 8, !tbaa !42
  %5 = getelementptr inbounds nuw i8, ptr %4, i64 16
  %6 = load ptr, ptr %5, align 8, !tbaa !46
  %.not = icmp eq ptr %6, null
  br i1 %.not, label %8, label %7

7:                                                ; preds = %3
  tail call void %6(ptr noundef nonnull %0)
  br label %8

8:                                                ; preds = %7, %3
  %9 = getelementptr inbounds nuw i8, ptr %0, i64 8
  %10 = load ptr, ptr %9, align 8, !tbaa !38
  tail call void @_Z34alts_iovec_record_protocol_destroyP26alts_iovec_record_protocol(ptr noundef %10)
  %11 = getelementptr inbounds nuw i8, ptr %0, i64 16
  tail call void @grpc_slice_buffer_destroy(ptr noundef nonnull %11)
  %12 = getelementptr inbounds nuw i8, ptr %0, i64 248
  %13 = load ptr, ptr %12, align 8, !tbaa !36
  tail call void @gpr_free(ptr noundef %13)
  %14 = getelementptr inbounds nuw i8, ptr %0, i64 272
  %15 = load ptr, ptr %14, align 8, !tbaa !17
  tail call void @gpr_free(ptr noundef %15)
  tail call void @gpr_free(ptr noundef nonnull %0)
  br label %16

16:                                               ; preds = %1, %8
  ret void
}